; Function Attrs: nounwind uwtable
define hidden ptr @lxb_html_parse(ptr nocapture noundef %0, ptr noundef %1, i64 noundef %2) local_unnamed_addr #0 {
  %4 = tail call ptr @lxb_html_parse_chunk_begin(ptr noundef %0)
  %5 = icmp eq ptr %4, null
  br i1 %5, label %lxb_html_parse_chunk_end.exit.thread, label %6

6:                                                ; preds = %3
  %7 = getelementptr inbounds i8, ptr %0, i64 40
  %8 = load i32, ptr %7, align 8
  %.not.i = icmp eq i32 %8, 1
  br i1 %.not.i, label %9, label %lxb_html_parse_chunk_process.exit

9:                                                ; preds = %6
  %10 = getelementptr inbounds i8, ptr %0, i64 8
  %11 = load ptr, ptr %10, align 8
  %.val.i = load ptr, ptr %11, align 8
  %12 = tail call i32 @lxb_html_tokenizer_chunk(ptr noundef %.val.i, ptr noundef %1, i64 noundef %2) #7
  %13 = getelementptr inbounds i8, ptr %0, i64 44
  store i32 %12, ptr %13, align 4
  %.not8.i = icmp eq i32 %12, 0
  br i1 %.not8.i, label %lxb_html_parse_chunk_process.exit.thread, label %lxb_html_parse_chunk_process.exit.thread16

lxb_html_parse_chunk_process.exit.thread16:       ; preds = %9
  store i32 4, ptr %7, align 8
  br label %33

lxb_html_parse_chunk_process.exit:                ; preds = %6
  %.phi.trans.insert = getelementptr inbounds i8, ptr %0, i64 44
  %.pre = load i32, ptr %.phi.trans.insert, align 4
  %14 = icmp eq i32 %.pre, 0
  br i1 %14, label %lxb_html_parse_chunk_process.exit.thread, label %33

lxb_html_parse_chunk_process.exit.thread:         ; preds = %9, %lxb_html_parse_chunk_process.exit
  %15 = getelementptr inbounds i8, ptr %0, i64 44
  %16 = load i32, ptr %7, align 8
  %.not.i12 = icmp eq i32 %16, 1
  br i1 %.not.i12, label %17, label %lxb_html_parse_chunk_end.exit.thread

17:                                               ; preds = %lxb_html_parse_chunk_process.exit.thread
  %18 = getelementptr inbounds i8, ptr %0, i64 8
  %19 = load ptr, ptr %18, align 8
  %20 = getelementptr inbounds i8, ptr %19, i64 8
  %21 = load ptr, ptr %20, align 8
  %22 = getelementptr inbounds i8, ptr %21, i64 360
  %23 = load ptr, ptr %22, align 8
  %.not.i.i = icmp eq ptr %23, null
  br i1 %.not.i.i, label %lxb_html_parse_chunk_end.exit, label %24

24:                                               ; preds = %17
  %25 = tail call i32 %23(ptr noundef nonnull %21) #7
  br label %lxb_html_parse_chunk_end.exit

lxb_html_parse_chunk_end.exit:                    ; preds = %17, %24
  %26 = load ptr, ptr %19, align 8
  %27 = tail call i32 @lxb_html_tokenizer_end(ptr noundef %26) #7
  store i32 %27, ptr %15, align 4
  %28 = load ptr, ptr %0, align 8
  %29 = getelementptr inbounds i8, ptr %0, i64 16
  %30 = load ptr, ptr %29, align 8
  %31 = getelementptr inbounds i8, ptr %28, i64 96
  store ptr %30, ptr %31, align 8
  store i32 2, ptr %7, align 8
  %32 = load i32, ptr %15, align 4
  %.not11 = icmp eq i32 %32, 0
  br i1 %.not11, label %lxb_html_parse_chunk_end.exit.thread, label %33

33:                                               ; preds = %lxb_html_parse_chunk_process.exit.thread16, %lxb_html_parse_chunk_end.exit, %lxb_html_parse_chunk_process.exit
  %34 = tail call ptr @lxb_html_document_interface_destroy(ptr noundef nonnull %4) #7
  br label %lxb_html_parse_chunk_end.exit.thread

lxb_html_parse_chunk_end.exit.thread:             ; preds = %lxb_html_parse_chunk_process.exit.thread, %lxb_html_parse_chunk_end.exit, %3, %33
  %.0 = phi ptr [ null, %33 ], [ null, %3 ], [ %4, %lxb_html_parse_chunk_end.exit ], [ %4, %lxb_html_parse_chunk_process.exit.thread ]
  ret ptr %.0
}